(lp0
F1.4108588094194925
aF2.858530988325862
aF1.4422428760343893
aF-1.235696074429733
aF1.1524750874122631
aF-1.084863403844988
aF2.9133399022878717
aF-2.1384240608424925
aF0.9224679911589044
aF-2.834428280422486
aF-0.7046596480674765
aF-1.4456348276768818
aF-2.0938418506697483
aF2.1839308064311638
aF-1.3004001571757917
aF-0.3765008530195777
aF-1.7384835163024854
aF1.9133125887834241
aF0.5594572506848752
aF-2.3280719744432457
aF2.84092452673179
aF2.696393280280682
aF-2.0672892494752517
aF-0.7459867000196274
aF2.7259748098213565
aF-2.4148336944772906
aF-2.8772921082393745
aF-1.3304822501221871
aF-0.03529837079547793
aF2.6118736683885233
aF0.3964020297772022
aF1.458841909347532
aF-1.974303414671843
aF1.7886923688980536
aF2.8262553340166576
aF-2.014998263816244
aF1.534999295906733
aF-0.5586761021471336
aF0.2067306578627095
aF2.5442206261308753
aF-0.5726450153387823
aF2.305990056837901
aF-0.42639174228034227
aF-0.5137524285508035
aF2.5400954309913324
aF-0.9546456582387428
aF2.4005354358282966
aF1.8775411944664988
aF-0.8508819777422514
aF-2.9613582891816046
aF-0.8583080946047592
aF2.6499710827031997
aF-2.3117441205356255
aF-2.8311869967020744
aF-2.1074314410259083
aF-2.179756237983069
aF-0.5476435382453033
aF-2.718579732305887
aF1.3395443328325705
aF-0.7798724586224832
aF2.4945144814725486
aF0.4165510077173513
aF1.453945544218234
aF1.690247684419039
aF1.8153697458418883
aF-1.9138285972515106
aF-1.6699358100961357
aF1.887688405879012
aF-2.5269372397894125
aF-1.6784595558764555
aF-2.0794894495658323
aF0.5290468462860693
aF-2.1862105051652074
aF2.2595617516634396
aF2.2693449392694838
aF0.96966411787594
aF0.45865770702239006
aF-2.5209408597155516
aF-1.1786026727465908
aF0.09742936393988089
aF-0.6242422208421976
aF2.106898510278093
aF-2.323207209945065
aF0.7700140008551912
aF-0.9254677791562602
aF-0.0015560649489101408
aF-2.62636690424946
aF-1.7545488711344672
aF-2.946728670421935
aF-2.5035245346474015
aF-0.22668828895219661
aF0.30114272333989867
aF-1.6339133253334532
aF0.17670292070620208
aF-2.290404394936658
aF1.6391144871588175
aF1.9049513958248099
aF1.4234492476785192
aF2.831410454474323
aF1.381620286692213
aF0.413906295374618
aF-1.0247348995674896
aF-0.9173338510074984
aF-0.42768375433296146
aF1.4851743362853327
aF-2.4898359932413157
aF-0.5996909579961995
aF-0.1235529977710228
aF1.259224231216347
aF-0.1937461285508597
aF-1.072216227318293
aF-2.512666642566656
aF-2.3209084533215565
aF2.1350247291407207
aF-0.6910993770349592
aF-1.9670482711073418
aF-2.5876738651381075
aF-1.8191224153491956
aF1.8303331739301356
aF-1.5582238636319954
aF-2.836329989575278
aF-1.9689668220330325
aF1.854741189951854
aF1.1778690855342848
aF2.229810427560313
aF1.164655483962175
aF0.533720601696416
aF-2.809472512843934
aF-2.721480478815119
aF-0.7123934556988969
aF-2.326165871155798
aF0.8681715209936689
aF-0.711661907911675
aF2.5636065541762045
aF-2.860640730723447
aF-0.5257302889367557
aF-2.6325568902455143
aF1.5193915936884075
aF2.208605844939945
aF2.246471617595253
aF-0.1748682030629638
aF-0.02559266856886211
aF-1.3276631544126731
aF-1.8226950360930683
aF2.4034970907953896
aF0.2495224057117138
aF-2.5063040582463865
aF1.5045942457437729
aF-1.4260619648132993
aF0.32466511714866453
aF2.431619259658129
aF1.0305505662632077
aF2.1566903433147786
aF2.1174188083543246
aF0.25457740780444826
aF1.2342807711223323
aF2.7875236602587226
aF-2.197172256418649
aF-0.7948702773966341
aF2.856312876348717
aF2.5010691664589917
aF-1.9197671528260463
aF2.1016170636846248
aF-2.4444607747144023
aF-1.5178808930905394
aF1.0643916650688396
aF-0.19177713308337907
aF-0.021123900852993316
aF0.44726755778250027
aF0.9657614728251191
aF0.4029951366822617
aF-2.436699779675778
aF2.027504207761658
aF2.5951859775594315
aF-2.979498101591747
aF1.20290961139737
aF-0.23181283046605605
aF0.0891184548780326
aF1.0746789736252982
aF-1.2302740525230613
aF-2.480294778770576
aF0.48951434463718524
aF2.5483177514419886
aF-1.886473722484344
aF1.7414299605878316
aF-2.361596290822259
aF-1.1397405300064953
aF1.3213069174698457
aF2.61543676462576
aF2.8196066598339673
aF0.1311768494858203
aF0.143418005691335
aF-0.6817067041497649
aF-0.59536603728675
aF-1.408144917722471
aF0.17744015294552629
aF0.5331938138223777
aF0.6650767898293926
aF1.249962124272189
aF0.27770873044026256
aF-2.853063242656244
aF-2.378832861510124
aF-0.5079916621815279
aF1.8382375560205606
aF-1.0602310308202092
aF2.7560845741302575
aF1.8335320763888738
aF-0.8806702193637239
aF-0.30681890112361776
aF0.901949961859426
aF-2.7254631767003694
aF-1.7210953709989318
aF0.27626706744403196
aF0.06014887435497984
aF2.02418523330134
aF-0.2634116598837961
aF-0.6610177791027443
aF2.7472115006680236
aF-1.3731276435615518
aF1.6804928172847058
aF-1.9674302701432138
aF0.9647492943576395
aF-0.30284114075765656
aF-2.550142058642391
aF-2.1588521076038005
aF-2.938951044806302
aF-1.7686785131117924
aF-0.8670907532009062
aF1.489211282894436
aF-2.291601347105789
aF0.20083759540465396
aF-2.9097157316403637
aF2.525116983768795
aF0.7936798549315265
aF-1.781593145271762
aF2.2348272914371865
aF-2.887135639763916
aF0.3006659955492932
aF1.648909349540042
aF-2.5213067825452393
aF-1.1002384935863991
aF-2.016246589416242
aF-2.5154701755695603
aF0.6796230060727
aF-1.419890697485255
aF0.18609498433892968
aF2.1292848913358213
aF2.394807881524547
aF2.310961639465548
aF2.3228594758389747
aF-0.8507759242709145
aF-0.921922589681782
aF-2.310287217194017
aF2.107857303291576
aF2.744337365009116
aF-0.06803048920894472
aF1.0591021108953225
aF1.4042965463372399
aF-2.244218938662728
aF1.23650273344958
aF-0.8376811184698685
aF0.8336272403622278
aF-2.3866871908281126
aF2.1936905303454868
aF-0.9366750196281881
aF0.5181523543587057
aF2.157610700846388
aF-0.7674905706255775
aF2.695176132094801
aF-2.5450080013350123
aF-2.6195292360284754
aF-0.8562480337318457
aF1.9908829162777941
aF0.7671197943499584
aF1.8316282349368382
aF-1.473492947836569
aF-0.40687721722902115
aF-0.1643834044658954
aF-2.5847659467017126
aF-1.2658136119914811
aF0.7677669805146952
aF-1.0985917248764798
aF-0.35537927558232063
aF0.886330033196824
aF-0.214843009070937
aF-2.8112073058053255
aF1.1647189472616617
aF0.7041678942595286
aF-0.20303391699658047
aF-0.43536511819460433
aF-1.7226951064948743
a.