(lp0
F1.7358562370162014
aF0.6515882941027473
aF-1.3306482381123332
aF1.157517034388805
aF-1.6614741361854581
aF-2.6073986253049037
aF0.24662620551165926
aF-0.11893249637068992
aF-0.8143454411093618
aF-2.103251829503706
aF-1.9376117983278511
aF1.5969490814933174
aF-1.9363324871010918
aF1.4306209147750977
aF1.1730171966467777
aF2.3353155657413147
aF0.349614047887175
aF-2.3076314024010403
aF2.09411203912358
aF1.408995881436785
aF1.2731674472440062
aF1.558735560976248
aF-0.248698870278798
aF1.0323622001120274
aF2.8028847886236923
aF-0.36886035670519046
aF-1.5088671677214152
aF0.44134353614616684
aF-0.14226745113985295
aF0.978571480552537
aF-2.327177294236745
aF-0.2451430374546737
aF-0.9061627494059099
aF-2.8799562852552496
aF-1.120118172757195
aF-0.07802644732251185
aF2.8406415935908402
aF-1.9615906020810254
aF-2.3627434816240234
aF-1.3816202398564212
aF0.15975985153027228
aF-2.5465535309869454
aF2.5987705760390156
aF-1.911451683125035
aF2.6763521423976195
aF2.7628337298144654
aF-2.134674046958452
aF2.554382432732279
aF2.5336494994570984
aF2.8277176360880247
aF-1.8642308104143657
aF-2.3543639957034808
aF-0.036821939809670745
aF-0.555892661155474
aF1.0900503827049315
aF-2.722124429879024
aF-1.9559463578277076
aF-2.923571176813576
aF1.4948181782784458
aF1.377027405354994
aF0.9552977120288229
aF2.332401841125413
aF-1.7015342675303031
aF2.98881933388674
aF0.505354573412971
aF0.62200253242387
aF-0.024419820422054705
aF2.9825949849676814
aF2.7236776420483935
aF1.1246211035825597
aF0.9117862021520873
aF0.14314693874964757
aF-0.9263399328036108
aF0.8600091226267921
aF2.2564249814455595
aF-2.61509447865928
aF-1.6048711368026063
aF1.875553935513243
aF-0.9945945457062018
aF-2.2966982023247366
aF1.1631432626665221
aF1.7800690904335097
aF-0.3279918269619482
aF1.1140241375617315
aF-0.10780508249394716
aF-1.3178460891509804
aF0.9196094511043338
aF-0.19845281709663087
aF-0.9646800647497296
aF2.0506927157767905
aF-1.5368229122391992
aF2.2236645266570383
aF-2.5310253254214836
aF-1.0740073412608462
aF-1.1615847594389002
aF-0.3296508830549958
aF1.14057779212043
aF-0.27418732784465005
aF2.5948551290789155
aF1.2108672732163166
aF2.250511881109717
aF1.835657253473653
aF-0.9450711943700405
aF-0.17162633818053408
aF2.7217593048880495
aF-1.309406210660002
aF1.5830268237617382
aF1.6747381429781978
aF0.17288562883951286
aF-0.28204962793391
aF-0.5020865297500663
aF0.9528111830954367
aF1.567838371831142
aF-2.923346121799254
aF-0.5040955517875405
aF0.8963188019918702
aF0.20591995760697968
aF1.7630389306764407
aF-2.0548253508278265
aF-0.2971870685607638
aF-0.6129532293572217
aF0.8905873611535862
aF-1.8522798153418416
aF0.07483106974741816
aF-1.9404950035714092
aF2.445140763202451
aF2.433709324758185
aF-0.2093465883598089
aF2.1729952316350403
aF1.8607328689837441
aF1.125884593102782
aF1.481768337019795
aF-1.3703671051687347
aF-0.32281026974727567
aF-2.498933330903406
aF1.090152474761556
aF2.0273423595797677
aF0.45569849795357786
aF2.0029445213225454
aF0.4790009084577509
aF-2.484089966889828
aF0.8670740438127753
aF2.8079606112788165
aF0.7423042640987179
aF-1.0948561064575286
aF-2.5531574736384828
aF-1.6206040893329283
aF-0.36777099742332364
aF-0.360782688433531
aF-2.7223776991048734
aF-0.5843561640101331
aF-1.6108978978182245
aF-0.6788735526591045
aF-1.969869889401174
aF1.5443034416359875
aF-1.49315869143768
aF2.989124379284288
aF1.1688005424801826
aF-2.475430705041535
aF0.09646836577713414
aF-2.0930280498099902
aF-1.5458923497464516
aF-1.4892523260753652
aF-1.5257152570553056
aF-1.2253899126482004
aF-2.0436277374420633
aF-0.30023096615295675
aF-0.7944027723719271
aF0.497314015167575
aF-2.703153346966891
aF-1.6672094226914886
aF1.0749231399825652
aF2.3351527574903264
aF1.1741125380334427
aF-0.6856092820809501
aF1.4137708033503325
aF-1.4748434014949101
aF2.290981548943872
aF-1.647997078190488
aF-0.5488693540598932
aF-0.28355900462752714
aF-1.8418629014843282
aF2.686651535788566
aF-2.8097255467060602
aF-2.4540546778424464
aF-1.8558346870102622
aF-0.9682811368789608
aF-2.969471951614528
aF-2.6584822479682977
aF-1.0380244272003527
aF-0.522658777420745
aF2.515428543874278
aF2.533219288447718
aF-2.2392475805557566
aF1.9057592824912648
aF1.3899669500872536
aF-2.653729298447628
aF2.7057803312040347
aF-0.9562630609565312
aF-0.48638486449022267
aF-0.6948159397957574
aF-0.006128870971414457
aF-1.5914281768070155
aF-0.45995575484205986
aF1.6694513705655272
aF-2.758263833500158
aF2.978902223974691
aF-0.6510821131263347
aF-0.605259867232042
aF2.5556345481083644
aF-1.3855923081246013
aF1.3517408110794875
aF0.08765335094481586
aF-2.6446990171952782
aF-2.3796410692430623
aF1.731020730713352
aF-2.2349784606205434
aF-0.7773485872970678
aF-0.13098865138864024
aF1.4352362855249527
aF-1.6010648022854566
aF-1.7022206266011342
aF-2.1491317462762076
aF-1.345533448695623
aF2.7536485515987277
aF-0.027840220253648518
aF-0.4632461797111951
aF1.0515588821756028
aF-2.001636579683942
aF-0.37813559715207745
aF-1.2156070990908592
aF-0.3660251830868875
aF0.4078799823161958
aF1.8174188967976939
aF2.4211725803548614
aF-0.6018733477285503
aF-2.377130226825825
aF-2.247787438562394
aF2.75206904244443
aF-2.0053164011200435
aF0.6967916193021342
aF-2.08848664249713
aF-0.594140116387039
aF2.923238646035113
aF-2.8944450783007687
aF-0.42718563559224165
aF0.9804813500660599
aF0.5832456761773934
aF1.0996362907970605
aF0.8638513332518927
aF-0.7481540214607421
aF2.2570544781788957
aF2.2230537875134475
aF2.41561461965975
aF-1.0193671963896955
aF-1.1650908947863672
aF1.692716915879017
aF-2.0961967194332813
aF0.37310176889165936
aF0.7063085934259226
aF0.6842681291298724
aF1.2448580967609892
aF1.9009149819524218
aF0.28097024179798513
aF-1.1861424599097161
aF-2.582216018988433
aF0.9955187169368087
aF-0.02708741958737404
aF-0.9194184839608179
aF-2.70587683071538
aF-0.23561342475327152
aF-2.653662167894024
aF1.134009569702192
aF-2.2628875904611467
aF0.020811533720409336
aF-2.26421560285838
aF-2.0758518473292886
aF-0.0222716810646304
aF1.7158394464619393
aF0.8655452795215552
aF0.5727132936231216
aF-2.590667129009522
aF1.58909883087314
aF-2.3555911953291284
aF0.8040845314269331
aF-2.1344941977144023
aF1.1656024505527842
aF2.380208584964639
aF2.800821139864097
aF-1.037343584643883
aF-0.24451799469607316
aF-1.745438045414575
aF-2.3640244607128946
aF-0.9264362852189745
aF-1.0770786754691988
aF-0.5008064116743194
aF2.7466258503218297
aF0.7100232451176711
aF-1.5415603125569288
aF-0.4133310901505647
aF-2.559606295584164
aF0.023599593886248105
aF-0.5066078585280609
aF2.6115690614305906
aF-0.6369042973082886
aF-1.3817054842334984
aF-2.012835201784678
aF-2.5776345487959573
aF2.4464979259379387
aF-0.27964639989192985
aF2.0582380697940676
aF-2.9102077662780492
aF0.3630718739128933
aF-2.860469399237221
aF1.9639002522503244
aF-1.69025539486439
aF0.4996661749431226
aF-1.4143868110550226
aF0.44815656209718036
aF2.0944212837578444
aF1.2110499188832495
aF2.7561790648180207
aF-0.022157197251478244
aF1.4350426342209728
aF1.2271409914313551
aF-1.717611717917028
aF2.5342133034940044
aF1.7641385863170527
aF0.15872188873649984
aF0.3296301839193454
aF-1.5628986990572056
aF-2.0422293728458296
aF-1.4790818114676387
aF-1.064779517948946
aF0.9075823553660487
aF-0.7217407174836215
aF2.952631078322991
aF1.9301503210757094
aF-1.5970344791882645
aF-1.3765851357463317
aF-2.9123683982811954
aF-0.6079858941194196
aF1.3951984359023681
aF-0.8831875411023558
aF2.6193652928695297
aF0.04244964247323013
aF1.6073904953939788
aF1.2172168326245512
aF-0.502754598191216
aF-1.6055807867179643
aF-2.696372773977593
aF-0.24430215616127926
aF2.272835455311439
aF0.5744037674127105
aF2.768287846685129
aF-0.5136396367561975
aF0.7885553926298701
aF-1.5272677086208704
aF-2.599566316571559
aF-1.7325005192946457
aF-1.2215878699795826
aF-0.4719492923878539
aF2.966541852786424
aF-0.6410924955881452
aF-0.6660506828752593
aF2.2425474587085734
aF-0.23287626608812584
aF1.717466846606147
aF-2.6391718087785225
aF2.3830022017482344
aF-0.38370021636615537
aF-1.4597539880698551
aF-1.9072219743340442
aF1.38088914706199
aF2.37651368406582
aF-0.04090867912801155
aF0.5766518323209198
aF-2.1967619252442616
aF-0.4230473071460832
aF2.3647043180573055
aF-2.43847831170358
aF-0.7705720278027854
aF-2.8869566679264302
aF1.8233593258778926
aF-0.22359146667784646
aF-1.536856059470786
aF-1.9655806692066133
aF-0.12722025904513412
aF0.21855502760980627
aF-0.22332268161042546
aF2.148774251551714
aF0.18304298725401935
aF0.7359658708655932
aF0.37883468364626394
aF0.9287913413782096
aF-2.368667959565402
aF2.353339226257342
aF-0.6532684260600297
aF2.83018385924
aF2.3098415540797888
aF-2.8646261607711243
aF2.401543548763322
aF2.7243796966293115
aF-1.3423899186743051
aF0.2060374361327364
aF-0.15023119665372153
aF0.28598566385035085
a.