(lp0
F1.1005037724641102
aF0.14472932638262703
aF-0.5580932538571624
aF-0.17422724931192501
aF-1.2792310773974052
aF0.32255570563062674
aF2.7680752047855357
aF-2.9426398923869375
aF2.9559899824648808
aF1.171862022669715
aF0.2491750672728985
aF2.545725817638445
aF2.7652178162831076
aF2.996173534023824
aF-1.7779134492823585
aF2.896061055159209
aF-0.9913977739493376
aF0.6831270715953979
aF-0.11162696076095724
aF-0.1726277252270738
aF-1.8053412311083439
aF-0.0429160758791598
aF-1.3314282797065637
aF-0.6986795218125406
aF-2.310973635960492
aF1.2954325520878847
aF-1.567913764550733
aF0.7325988708656546
aF-1.7098103630747772
aF1.9294005719146181
aF-1.2327656554009587
aF-1.4503853778157554
aF2.299791424012631
aF-2.4682446983142112
aF0.5394417622917009
aF-2.4133079931914234
aF-0.5431704824053476
aF-1.705681773554348
aF-2.0675100711578613
aF-0.4536044561045003
aF2.4880561563302894
aF-2.3077132424254927
aF-0.6358620406915168
aF1.0631548295040654
aF-2.0402418138142613
aF0.9205302331591141
aF1.245948490491716
aF2.1661552399879476
aF-0.08493201796781902
aF1.6874812960845507
aF-0.8153475429799686
aF2.7758064595695453
aF-2.5746484551005766
aF-1.9051830306729858
aF-1.025809971739084
aF2.3661557465920264
aF-2.072659036390561
aF-1.9401416808940524
aF-1.2536855724158757
aF-0.9832769100506615
aF-0.09972417373237441
aF1.1068338236962845
aF2.4332870872657058
aF1.2733651721888908
aF0.7377406073172601
aF-2.655320355258299
aF1.2271967544191549
aF0.12515946444293924
aF-1.8731991381572717
aF-2.6617430967280926
aF1.797367866524202
aF-2.05569202436296
aF0.6235667058035315
aF-2.9488927333495596
aF0.585408439823162
aF2.4440473048052445
aF2.1696270992185323
aF-0.47843070995547343
aF-1.4106037589667697
aF2.9665798573760966
aF-2.4707300118933784
aF1.673266519236635
aF-0.06323392824813379
aF-0.4628638794861333
aF0.3037540031205319
aF2.8016625364578385
aF-0.6595365637127655
aF1.3516311483941852
aF0.3726847272051339
aF0.1859319159475339
aF-0.5087701456195375
aF1.8373092582320858
aF1.0515505108979228
aF-0.6441982338146648
aF-1.3106490755121303
aF-1.048414994865228
aF-1.2486760460341009
aF0.81665486634021
aF-2.763190917332727
aF-2.741494882133403
aF-1.5810561491103956
aF2.7830862730747317
aF-1.8207769237791038
aF-1.5289659764311985
aF-1.4184553902318875
aF1.7827767446617289
aF2.13298140976511
aF0.4753743341772805
aF-1.8164947672998686
aF0.20678993235888665
aF-1.3650564652700785
aF-2.025193182990536
aF2.5713414651794135
aF2.2939049596026653
aF-1.4794905827692364
aF0.4881743994045187
aF0.32277195267500414
aF0.17771395833024206
aF1.0415817360414152
aF-1.6395582191031137
aF-0.8199412389074219
aF-2.187130296966994
aF2.0916361031428474
aF-2.98921696254094
aF-1.8763973172545414
aF-2.435226123724775
aF2.485640366191756
aF2.7376386983348997
aF2.5044665456192234
aF1.939594139975795
aF-2.211870844205416
aF-2.5885910242257566
aF-1.9790402938124618
aF-1.5583296679025103
aF-1.2107328366010568
aF0.2655652090252816
aF-0.13928770689853298
aF-1.8721161497430678
aF-1.448218708992842
aF1.6446258532568958
aF2.7881937125231664
aF1.0201325204374188
aF-2.7297589006865364
aF-0.7851434045960155
aF2.3305979259871172
aF-2.5045773934062043
aF-1.070214377422476
aF-2.3292744999623762
aF0.0033036649049176248
aF0.31939474244731336
aF-2.734241902571237
aF-2.5709923334646456
aF2.0752891001168194
aF2.5638325420549277
aF-0.6706288201577673
aF1.5458000561275975
aF1.0519143805214686
aF1.2354759276323302
aF-1.592141947312255
aF-0.8634326895876883
aF-2.58044338039364
aF-0.9475073426300296
aF-2.121104242357411
aF-0.9395378983864622
aF2.4023176947468725
aF-2.5853726124893543
aF-0.9354314926026053
aF1.6708432408261071
aF2.5888259481506424
aF-2.266090187430577
aF1.81461464195311
aF-1.4065556713179765
aF1.4737380523598533
aF-0.12622232153037594
aF-0.2761461569976751
aF-2.0399766297268305
aF-1.6480539612394824
aF1.9001477846120487
aF-2.5140010454322077
aF0.6974088559045937
aF0.6641283694925368
aF-0.1774691684989449
aF-2.85293745815264
aF2.302918161831963
aF-0.5228893006941808
aF2.741547984934673
aF-0.5836620185544747
aF-1.079557846898982
aF1.32866631761682
aF-2.9546062449058033
aF-0.5104574551138703
aF-1.980178408771967
aF-0.3684419548828197
aF-2.3192644958330986
aF2.658397769961528
aF-2.262597955782911
aF-2.8495153195019673
aF0.42224828175322227
aF2.193479724240521
aF-1.1214338425510733
aF-2.532618218869958
aF1.2793491183459427
aF0.4688882918298023
aF1.8170016181304245
aF1.2975461863671889
aF-2.4865313800709563
aF0.2245560194813141
aF-1.3467330545714595
aF1.5918868304167884
aF1.4048931453094884
aF0.0704891568547632
aF-2.5390105391667097
aF0.3008628407155971
aF-0.5584255829339844
aF2.3099528400727625
aF-1.0827000140781393
aF1.3000976518856548
aF2.860392792309624
aF1.7701187680330026
aF2.4381529846713033
aF-1.4449020943210886
aF1.300745964732827
aF0.904818695736906
aF-1.1445284288427504
aF-0.6273529802452735
aF-1.3566198095826987
aF-2.871644491928416
aF-0.5092793731668586
aF1.8827193471860841
aF0.27263421143044564
aF-2.7637908626051937
aF-2.8712548471277564
aF2.2991826576365533
aF0.8654281242382802
aF-1.9968112042998964
aF-1.8591921067511272
aF0.7231382930116879
aF1.9456016098354976
aF0.015022315207101844
aF0.25202991193579516
aF-1.9433943145880945
aF-1.2414509004470464
aF-1.9056827332332782
aF-1.4712127502388586
aF-2.7417443865160163
aF2.7178885030617685
aF2.9164077652223783
aF1.6196730649629787
aF0.9274131059690767
aF0.26501297090082776
aF-1.9698665002313664
aF-0.6435131155923877
aF0.08188822937582074
aF0.6572970163387728
aF-1.2148482789409665
aF1.8465754907255283
aF-0.6836332227501116
aF1.612187868756803
aF0.3092361765407725
aF1.8050479035585099
aF-0.3264895255023328
aF-1.6831365022273406
aF-1.6246511967639545
aF-0.5043873847049722
aF-2.490102603100814
aF-0.24496632387718442
aF1.872573577808362
aF2.1518857307091057
aF-1.2527234313649076
aF1.6976013944616257
aF2.060456897786514
aF-1.5873538121182045
aF2.8644618955244603
aF0.2112454206769403
aF0.1591659897772102
aF2.951904655524185
aF-0.24670101885775253
aF-2.587430896284208
aF-1.9043187821375174
aF1.9251598152670724
aF1.5648402695185828
aF0.8515901272914981
aF0.043975103325426534
aF-2.111778298410493
aF-2.136248693979432
aF-2.17192662363395
aF-0.8517505421744733
aF2.454939140553595
aF-2.048484184213048
aF-0.552005857317039
aF1.0441622715717696
aF-0.9268552624495099
aF-1.239481831590292
aF2.4513172471860694
aF2.026573576265805
aF0.6866526006336713
aF1.453629553831977
aF2.8351750111644503
aF0.8315218343251454
aF-1.142605572515569
aF1.7440930827812302
aF-1.1947859770316724
aF-0.13294567977274863
aF-2.1033608106416937
aF0.9002047291933168
aF-2.2594322287707977
aF-0.9276913906741808
aF0.28940628441133054
aF-2.499959204733603
aF2.032583394175136
aF-2.1411262386685013
aF-1.178163585684356
aF2.8795189237196883
aF-1.885050647969807
aF-0.08967082588997144
aF2.7342593755614217
aF-0.20809122112972167
aF0.74624034012438
aF-1.378378066435225
aF0.6065530665483942
aF1.9388016818433087
aF2.232524199726118
aF1.119511803794019
aF-0.30198404004112955
aF2.6569881749446376
aF-0.6596057191876001
aF2.808189188490328
aF-1.2655847369006261
aF-1.461601218237611
aF1.6250786388905567
aF0.1430275018715963
aF-2.2983645944021704
aF-2.2676016065094187
aF0.562274835760503
aF-1.5496228468629747
aF2.2070972448332666
aF2.4090111105471292
aF-2.936601083662559
aF-0.14237370011107098
aF1.4281501067176636
aF2.096545560866546
aF-0.8417310134811355
aF0.5480379930199106
aF1.9846696983974796
aF0.6897660936850833
aF-2.8552456985758274
aF2.8588532947273855
aF1.6628072925418094
aF-2.9022732646076475
aF0.9899627482971294
aF-2.342334888803813
aF-2.4547896865207353
aF0.9336073315054447
aF1.1974840909969906
aF0.21550304164276213
aF2.0130738096040846
aF-0.43032582756368676
aF-1.4527246654354573
aF2.1429807541123633
aF0.3839748277372501
aF-1.0183124220936242
aF-1.331217434214969
aF-2.597598402849855
aF0.7444692208526202
aF2.402689266754484
aF-2.7526013918062215
aF1.0172947208675662
aF0.3778675841235146
aF1.7905546344097303
aF2.87832163061519
aF1.3715225411738299
aF-0.46760390138185803
aF1.1743051073177666
aF-2.2571147847565127
aF2.7166341567844148
aF2.62300796992713
aF-0.5337596493936001
aF0.617979007002873
aF1.4463600415204425
aF-0.04602437850275676
aF1.6288145048004399
aF-1.2404090767999776
aF0.7702567116542078
aF-1.9314006727493993
aF2.1407693715090828
aF2.168004394795508
aF1.779146104964358
aF-2.742068600169546
aF0.6589522610314233
aF1.3072599959284936
aF-2.8655051837040766
aF1.760295226609772
aF1.9012990948443376
aF2.079425142472102
aF1.6155265956748472
aF-2.6529269742762285
aF1.3210241927466537
aF1.1752559479246933
aF2.4924383119250866
aF-2.8323742528979294
aF1.6079397959172663
aF1.3902828838846215
aF2.7508400756556037
aF-2.238980949774196
aF2.102452802602391
aF-0.15736260805632707
aF0.3083734629980235
a.