(lp0
F2.037713837604052
aF-2.703181818099022
aF-1.1022535450379907
aF-0.8403744607871668
aF-1.0047298545823462
aF0.9686043765061654
aF1.0631132187500523
aF-2.0433320710348792
aF2.3277033258639603
aF0.7296592136568831
aF1.6287159511112659
aF-2.2044302703531695
aF2.396437018264721
aF0.562342221749887
aF-1.7714449094079538
aF-1.81831443798406
aF0.9182826213058641
aF-1.5808932057916238
aF0.8277087901193192
aF0.8588266951895509
aF0.9304075785831425
aF1.5994852757005464
aF-0.736385241624296
aF-2.230537475704627
aF1.2727755684898563
aF0.6106296733352847
aF0.11462794426223821
aF-2.0918361349495194
aF-0.6847395106923031
aF1.1212792432741825
aF-0.6592981102100408
aF0.16868217531430485
aF2.080498618807935
aF2.884326114786714
aF0.2628992283209106
aF2.3196850006891916
aF2.4722477502187736
aF-0.8552821892242455
aF1.693838595823964
aF0.34843137811763025
aF2.9058294125937545
aF2.325466896567571
aF1.010567550228867
aF1.7596846952452454
aF-1.39893079358394
aF2.1778444065672016
aF-2.503350361258945
aF-2.518328784774356
aF0.265154481743612
aF2.2249423178401004
aF-2.924329443581766
aF-2.857327226405692
aF2.6717432414773548
aF-2.0657686065921173
aF2.797285588250026
aF-0.5250742769996437
aF-2.535146812628466
aF2.013769306133727
aF-2.4163771846964246
aF-1.0530267000992568
aF0.3395936819193559
aF1.8800913338659244
aF-2.890109220786475
aF2.375717490156539
aF0.953988987807465
aF0.5017622044180525
aF2.2410567351277217
aF0.09380873189328565
aF-2.1117455023311615
aF2.777092866103578
aF-2.20624239360364
aF1.0185593841867995
aF0.26319134963818014
aF-1.2946350130276272
aF1.854161429538232
aF-2.2883982439411827
aF-0.31597400766021133
aF0.7998344592211915
aF-2.8144062836436086
aF2.297339131583187
aF-0.49776240701790186
aF2.37880040068677
aF1.8369085021334381
aF-0.18215163907569032
aF1.3581928420151481
aF-0.09007767062456828
aF0.052651375773849374
aF1.1097139780077727
aF-0.9746916258327336
aF-0.15215256309890623
aF2.9584015317211954
aF-2.367132229078866
aF-1.5941424897195164
aF2.8859095058448254
aF0.10775525158601162
aF-0.9713844514963164
aF-0.2633980033297014
aF-0.7071195123726675
aF2.265993195123402
aF2.9325053750287244
aF1.6650209991972655
aF1.1011671873751085
aF2.7965471218269
aF-0.02396481381583726
aF-0.47612965609060254
aF2.70010300531788
aF-0.22581083297246218
aF1.630627825725905
aF0.10129114127478633
aF2.865550652449399
aF0.5073087076206666
aF-0.5752464124550505
aF0.30372531555249527
aF-0.24427752019590754
aF1.0855194098738066
aF-1.4444425809986672
aF-2.6531653316692747
aF-2.3963075723068066
aF0.16477314121389997
aF-2.4782217411387784
aF-1.6000767794836805
aF0.7194493753181535
aF-0.07132659704721966
aF1.248600690036831
aF2.946390912919899
aF0.46002722537633645
aF1.7547681855821882
aF-1.9169489329527258
aF-2.8354760887732198
aF0.5454879120099099
aF2.70839873550986
aF-0.5019948355223458
aF-2.7452760382254735
aF-1.1344338327506693
aF2.727211259165249
aF-1.571549788769141
aF0.5742527266521305
aF2.3684597932595075
aF-0.6116412733049668
aF2.3458128283840214
aF-0.7206797940774061
aF-1.0655787556961904
aF2.7519236201436383
aF-1.6971727086637647
aF0.1364937814358913
aF0.589426566397167
aF2.5646668693422585
aF0.2670079322133745
aF-1.2335407850269478
aF0.9030992821552375
aF-0.21554668002278365
aF-2.0399373718169755
aF2.436780897159654
aF2.3994245657420565
aF-0.38769532781058524
aF2.567697440436193
aF-0.2600943381991838
aF-0.7317193906704653
aF-1.0553314437797643
aF-0.6270768967398821
aF1.721898432312451
aF-2.9660146649905705
aF-2.288164002042218
aF1.8230202059820568
aF-1.152498312105363
aF-1.8517426616977977
aF2.764831259011375
aF-0.8004759216855319
aF-0.879515190569097
aF-1.5371606208722166
aF-2.7584684206018792
aF0.38811054354970764
aF-0.28982698990805833
aF-0.9735112212877817
aF-1.9884657049739551
aF-0.14328472918526547
aF-2.850063090524601
aF-1.3879650358307685
aF-1.1103834642645114
aF-1.4933729844919474
aF2.539326077260335
aF-0.27695741196221757
aF-1.6741932830994297
aF0.33168079860667543
aF-2.394639168138723
aF-1.1140853149939274
aF-0.9491792703115935
aF-1.1580766406890721
aF-2.438922939167381
aF0.11279368368201403
aF2.133169014397356
aF1.5524175713889186
aF-1.8002043050157681
aF-2.427405633998451
aF-2.722261433804885
aF-1.6503460042067741
aF-1.2753519047430644
aF-0.706006629122697
aF0.8831778063397717
aF-0.5973198148941314
aF1.9462053302344176
aF-0.3705178650596008
aF-1.8422652971265434
aF0.8398962145823514
aF-2.5001077804920087
aF1.8002825231401038
aF1.3554571310180652
aF2.0353394789649073
aF-1.556950529231055
aF-0.6485067319191034
aF-0.46943390968926346
aF1.0063555603606602
aF-2.0526439163226455
aF-1.5842297341568135
aF0.5136298550778013
aF-1.4776475110725087
aF2.266469012863091
aF-0.9652047853514611
aF-1.4541719467110672
aF-2.1872069978522433
aF-0.297386992420674
aF2.4382519314608233
aF-2.811076298616314
aF1.1279696583894019
aF1.4649051825957509
aF0.12163749295452231
aF-2.911402213734238
aF2.9228353470171236
aF1.0133726938336203
aF-0.9031088402886169
aF1.611920998127271
aF1.3841856341142673
aF0.5373396411356177
aF-1.8469826623986738
aF0.6828004905018581
aF2.5555732963708646
aF1.3468943913140103
aF1.800883918564157
aF-0.9938054689845917
aF0.23170948744243702
aF-0.33275809059867134
aF2.661344225766465
aF1.0697019837667288
aF-1.2309895009058756
aF-2.519556947939053
aF-2.867236116078657
aF-1.8353208814032542
aF-2.8738984817439936
aF1.7928097123693583
aF1.3737549850900956
aF-1.699541331696223
aF0.2713267796487049
aF-1.2885430105264344
aF-1.3970788036314257
aF-2.5673788542066136
aF2.2669700325765616
aF-2.972521429834717
aF2.6562418705351076
aF-2.278874051090468
aF1.918685213867402
aF0.4204013793314445
aF2.264260044677977
aF-2.2787543902582534
aF0.2572749482836558
aF2.5783115889127775
aF1.7901962325508496
aF0.32513746286183487
aF-0.39346791413339055
aF-2.6938810657869556
aF-1.0259840201507344
aF0.38031530744771214
aF1.027004180783293
aF-2.8899441074052667
aF-2.1562492156015516
aF0.19077452318303756
aF1.7648044506279366
aF2.7207670464511047
aF2.0575788202653813
aF2.814021952718207
aF0.5234165640618906
aF1.0666207464171844
aF1.3603202405838886
aF-1.8403985842748254
aF-0.9090426031135657
aF2.277578187116288
aF2.4069180492767703
aF0.7889139130704681
aF1.6203142764823415
aF-1.9842041053505288
aF2.8191193364703437
aF2.912758933672901
aF-0.46218808345985085
aF-0.3595627721905874
aF-1.9679268932532135
aF0.5402671746465275
aF0.04530328049242094
aF1.1017011959867373
aF-1.871559189060853
aF2.834791821716422
aF-2.2476917886867804
aF0.1133364414329594
aF-1.9024611761512638
aF-0.9589895715264172
aF-2.3968181949415523
aF-0.934955623154754
aF-1.7460895022172864
aF-1.2184034156937569
aF0.3323361793188546
aF-2.7660940737384205
aF-0.6848125167676651
aF-1.0031707564967332
aF-0.6241379495151889
aF-0.5144592237470191
aF-2.699320680159521
aF-0.2418905938952336
aF-0.06625510881728358
aF2.50405480690116
aF-2.7317634171639598
aF0.06359459711209592
aF0.835933462026381
aF1.3174736921780505
aF-2.2162194419990624
aF-1.05432351950577
aF-2.100255409468871
aF0.008049758347430824
aF2.2876479391866553
aF-0.05131105604301611
aF-1.0064628912112352
aF-1.6463517007540405
aF1.197701870717406
aF-0.15149595032614105
aF2.9374011704162903
aF2.572242658142475
aF-0.7986036962667913
aF-1.3636265784062702
aF1.3757843657552211
aF2.7863171421485227
aF-2.939198293416275
aF-1.657781320874321
aF-2.4795639479990683
aF-2.527063457476198
aF-1.7002005161726579
aF-0.28446813633854084
aF1.1977587504944047
aF1.0877096115092062
aF-0.7224860769885888
aF2.4425042898479603
aF-0.351957353941843
aF-0.012979625841744724
aF-1.058659704346107
aF1.5445975757048362
aF2.0537689158587407
aF0.11662604370028617
aF2.173076247123517
aF1.4561074937876128
aF-2.5367950490390005
aF0.29120555488627353
aF-2.1794367198193303
aF1.037350357101408
aF-0.3802087062257069
aF0.2684699720637367
aF-0.3535826688580217
aF-2.7437149791613242
aF-2.1043229175140548
aF1.3429087431200095
aF0.23816233146905397
aF2.049306020809892
aF-0.2337063377769919
aF-1.447404299369433
aF-0.9673213429010525
aF-2.711185364069033
aF1.1760514239063138
aF-1.5065489594166495
aF2.5705147910836788
aF1.1897489669446264
aF0.9923381953622954
aF-1.563532520216813
aF0.9804769338218677
aF1.5813219434081578
aF-2.1446363964190396
aF-1.109215553081216
aF1.6351406760682972
aF0.41092564548960553
aF-2.6105528690617943
aF0.8749561235692891
aF-1.004969031277273
aF2.8487578608942616
aF0.5114180336991838
aF1.645676312120715
aF-1.3430622578072462
aF-1.0869961035915456
aF-1.7749013744887332
aF2.0212243342780027
aF-2.4409270488234287
aF-1.8972840944966012
aF2.320890737864624
aF-2.6954744862538917
aF0.7505845657932766
aF0.998340448533757
aF2.5763260839280067
aF-2.5672797292488836
aF1.8558498731722821
aF2.721870896038528
aF0.6974015990905142
aF1.550609839137989
aF1.202698300099489
aF-0.32956450047746166
a.