(lp0
F-2.734282809639164
aF1.692947156557608
aF-0.9905630175773066
aF-1.729657087242843
aF-1.6568218127845167
aF1.4263776147947507
aF2.3979425477915495
aF1.5668565458018664
aF-1.4820369557839324
aF0.2674546328548466
aF-1.1429885660454442
aF0.7223898863133291
aF0.7774768438819084
aF2.5859667205051036
aF-1.7392664258050687
aF0.09784459078211771
aF2.201069331322408
aF-1.1555156130682376
aF2.687587674845669
aF-1.0469396225076741
aF1.0850978033230794
aF-2.642436031894772
aF-0.39140492390417503
aF1.9328200494678676
aF-0.5938925719814243
aF-1.5324926277983406
aF2.351422108186739
aF2.6151046551960277
aF-0.6480572729577414
aF1.5893944475675017
aF2.6900900776242764
aF-0.43127492440370485
aF1.280957461534145
aF0.17079733473685232
aF2.4759404028241496
aF0.5501570150465227
aF-1.1473442869678772
aF-2.689392065319732
aF-0.4773922868061171
aF-2.329584002647998
aF-2.2544248363724044
aF-0.500786481025167
aF1.7794218530818426
aF-2.2833526214895854
aF-2.344849309314668
aF2.91572498990757
aF0.5733698309697575
aF-1.2814106755030357
aF-0.944805472718405
aF-1.969314502379451
aF-1.0240972700844855
aF0.9157229254872918
aF-0.12079705927803897
aF-2.4467863841839534
aF-0.8283911614400647
aF-0.6338104516468572
aF-0.14044835278421308
aF-0.33502926200519223
aF-1.6744838295159103
aF2.4525262596182653
aF2.615795948067488
aF-2.3964071667128133
aF0.17660219846937775
aF-1.2842475057872011
aF0.10054527891802723
aF1.3142155861551572
aF-1.828273379563562
aF0.285209292111114
aF-0.9341804154143327
aF-0.9022725686369388
aF-0.912687941823509
aF-1.7604388358167518
aF1.5989089571715684
aF-1.8162182457392573
aF0.45112306459286433
aF2.799476326170903
aF1.0051595748599258
aF2.2463807833609586
aF0.030280810024168936
aF1.9384650978837614
aF-2.3071825787601634
aF-1.597480220580463
aF-0.43512811276296315
aF-2.4173693687254802
aF-2.5804068715613724
aF1.2040035560177467
aF2.7602668638963177
aF1.8313382291254436
aF1.158734694880457
aF1.1920504474985538
aF2.530826626356845
aF2.055597960546131
aF-0.5590191749401687
aF-2.1279684396945404
aF2.457021728378221
aF1.1230605146311081
aF-0.6953516797925925
aF2.3913056491478093
aF1.6199632257919738
aF-0.31011689427187417
aF-0.8724948286090997
aF-1.3439179785856055
aF-2.1300085569463
aF-1.367577056336656
aF-0.602752079496367
aF-1.5314356401082825
aF-1.2507346179533687
aF-1.8686402099540191
aF-2.1718210416662185
aF-0.8150621333436012
aF2.3663467312259465
aF0.464275835926506
aF1.5651699355491449
aF-2.2358262019240875
aF-1.8144040452105565
aF-1.344181581947253
aF-0.5692283232382884
aF-2.22411234321041
aF-2.608466164241502
aF-0.8230841326657061
aF1.3330367859250876
aF-1.845648525091688
aF-2.536819425926762
aF2.014335158010171
aF-2.905089478894377
aF-1.6624712846273864
aF0.7217985839245542
aF-0.5063977274900946
aF1.1960196948351065
aF-1.0850939951898406
aF-1.2750189106574255
aF2.980192452038433
aF1.0159052798498207
aF-2.912971994395169
aF1.0730519340706248
aF2.362952991480493
aF2.002991818298593
aF-0.5979102811582195
aF-1.8134675293683413
aF1.3295894906705508
aF-1.1578497068440292
aF1.9481938246482153
aF1.8572204491211135
aF2.864938525949661
aF-2.93814331784039
aF-1.3367529196097816
aF1.9894353570223604
aF-1.7239038659429065
aF-2.912867145343257
aF-1.4031079011429892
aF1.6693705916898498
aF2.6233558672469695
aF-1.8859695143566497
aF0.11164011789603823
aF-2.2979358709595825
aF2.108204329856286
aF2.7856414261811455
aF-2.2659533722029783
aF1.5296845678038586
aF-1.2495233748054095
aF2.4344625025879623
aF-1.5465591437436388
aF-1.3265154269182386
aF2.243317040979628
aF1.80724013009202
aF1.1984726276521434
aF1.1025676858296007
aF0.4652902186568175
aF1.2134691444579708
aF-0.6479439804021241
aF-1.5419513702556813
aF1.061893746537609
aF0.16878726267842925
aF2.201783287806937
aF0.06921142250975354
aF1.1712524447682853
aF2.5992741735904348
aF-1.5306184502712494
aF-2.080315310561425
aF-0.016271331433021174
aF0.0731232119152514
aF0.5922499452901313
aF0.9977217957552629
aF-0.09262471721114274
aF-2.1979637460917862
aF1.284935504813765
aF0.28654091736048315
aF-1.7953139244918117
aF0.6779091569687283
aF0.7640775172249104
aF0.4947109004082182
aF-2.222268612313684
aF-0.2187985600727278
aF-2.48651544871564
aF-2.879705295055917
aF1.6788834129707988
aF-0.15991215542213677
aF-2.770194275356963
aF1.7740810222577856
aF2.707960094449806
aF2.138435049806235
aF1.0466487717392372
aF2.343278731019379
aF-1.8390463074879722
aF1.1311133378813514
aF2.3592107076789377
aF-0.04750094377521874
aF-1.6975912692524913
aF1.351498398711108
aF-2.5953762923948736
aF-0.23734625390838815
aF1.9408283354277884
aF1.2228371170281633
aF-1.5303969281833856
aF2.105143543498241
aF-1.3459699204260007
aF2.3162389468937077
aF-2.7859070435388724
aF-1.419963035759395
aF2.33046993222942
aF-0.0861484402761663
aF0.39770487528047616
aF0.5751828482650518
aF1.761868146360686
aF-2.4916916276350776
aF0.3047818263883544
aF-0.23936346010964016
aF0.36673904121701284
aF-0.48448377085511396
aF-2.551434205193404
aF2.710028826007239
aF-2.303537257704772
aF2.4181721618306
aF-1.9196455187489971
aF0.8945968727236266
aF-2.7716518894188784
aF0.0990973609962369
aF2.149291751842635
aF0.08942042935930772
aF-2.6171675603465676
aF1.2907889229028777
aF0.753865321792007
aF1.0379525134845586
aF0.6354524692169905
aF-2.891913460364614
aF2.9133107366463706
aF1.6423715404418466
aF-2.1682005518987957
aF-0.8563228928244957
aF-0.6705212509010074
aF0.7000337151599774
aF-2.3884075741978417
aF1.5855930655788448
aF0.11818349791978733
aF2.0628980208062426
aF0.04375382581835208
aF0.6431416564822516
aF-0.4792771143924788
aF-1.6908211966830278
aF-2.509643323691714
aF1.2337645158983905
aF1.8494163287138274
aF1.415445257849301
aF1.320306396869463
aF-1.6618619075205707
aF-2.614092681563774
aF-0.36728956641379584
aF-0.15720836317457376
aF-1.149352184948583
aF-1.587157506179394
aF0.37919219054066433
aF2.4878185042662295
aF0.7295892778989566
aF2.656969252110917
aF-1.6335907152573286
aF1.4804521735820115
aF2.7352262578570494
aF-2.760090982369101
aF1.5820039054660935
aF-0.3979873583023483
aF0.37644054597230525
aF1.262305503055309
aF-1.1263299140297605
aF-2.1529618539914566
aF2.05902935719961
aF2.4499750689051654
aF2.7338756408086002
aF1.025587531376317
aF-1.808078273772417
aF2.1528621622328004
aF-1.345919183208857
aF-1.238319608819553
aF2.2684002497817177
aF-0.22045249612162543
aF-1.0992408476406421
aF-1.3694618833382242
aF1.5382218435652648
aF0.5624729855976875
aF-0.5766905755879987
aF0.2099125767468002
aF-2.2142173089486636
aF-2.826884083345632
aF-2.1722206145800316
aF-0.24339940713670494
aF-0.5489122275837324
aF2.118430435006437
aF0.5241260444265139
aF1.6144570587248497
aF1.9306565436680136
aF-2.0847500329782793
aF1.1426001494863822
aF0.4705212389298392
aF1.3153940438673173
aF0.9472847147970196
aF-0.46542809531755136
aF-1.860736674703222
aF0.8690665376624089
aF-0.12473824812235357
aF0.877749182082328
aF1.3083365212445957
aF-0.6363619211389562
aF-0.4041793802407274
aF2.641906276597661
aF-2.2475770166798785
aF-0.9405859655662177
aF1.6911551682023411
aF1.1699579489623453
a.