(lp0
F1.2077791321262445
aF-1.2792023106761068
aF-2.1666317709858802
aF-2.606529605450338
aF2.6140304914850905
aF2.1301211767381076
aF-0.3398907014270436
aF0.44729548520075024
aF-2.7004500734394825
aF2.0062607863070347
aF1.2975331633497458
aF0.9032150206300305
aF2.7502717378371386
aF2.562422174573684
aF-0.5975589844074563
aF-2.331488142611537
aF-2.2689887242257716
aF2.4358509240929678
aF2.578440610349859
aF-2.100176302709018
aF-0.3297903199011052
aF-2.411764478039313
aF1.2824773428369722
aF0.016783332723850908
aF1.6702186927910727
aF1.2658215346659958
aF-1.673262743236424
aF-0.5669989453639244
aF0.5744167916148308
aF0.6233364284498437
aF-2.6445314101529176
aF-0.49055557388602233
aF1.2983448449517647
aF2.061639021574207
aF0.7043614568105578
aF-1.6574860169144232
aF-2.9011340002916812
aF1.823018175318504
aF-0.7183376167419881
aF-2.1293555893927634
aF1.2048214409473408
aF1.6195342847859093
aF1.9100217041938183
aF-2.666715034300803
aF-2.8808435465519198
aF-1.664558136218677
aF1.4034742940936473
aF1.090389067860742
aF-1.52777929275872
aF0.5098107648030386
aF-1.449061333538928
aF0.9892409955103885
aF0.5022249204318783
aF-1.1009662745025712
aF0.25073028321131696
aF-1.266036539744905
aF-1.5721565163848448
aF-1.0979292546649335
aF1.1467828609271544
aF1.9384647595341757
aF-2.852313517666751
aF1.2152255255370337
aF-0.5804117640325268
aF0.9259278337083199
aF0.7539385810092432
aF2.6768748361556103
aF2.4739808147805364
aF0.7277203719619738
aF-1.0430085736925097
aF-2.0441007900001034
aF0.6385892772152761
aF0.3616843022977738
aF-2.7973179072905814
aF-1.196842432619642
aF2.7693157677500047
aF-0.10505619064117955
aF0.994283999271814
aF2.977001772471552
aF-1.7205135872631723
aF-1.5946937382536168
aF-2.7426367509990763
aF0.22903204649014164
aF2.3005489000794963
aF2.012757880332468
aF-0.6641927964259229
aF0.9538831562599857
aF-2.58747602091867
aF2.3879685430208806
aF-2.779248174696101
aF-0.11111007286046215
aF2.9701057394242536
aF2.9071043796469223
aF-1.8717761129187833
aF0.5949288883690196
aF0.6223275357635503
aF2.095989294692229
aF2.7506986290548765
aF1.4337847111429323
aF-1.3956775346990706
aF2.0147429620306934
aF-0.119891877837218
aF-2.1168132053718147
aF-0.15557431512920994
aF0.8705310380938038
aF-0.24142254782633898
aF-2.3043315637911967
aF0.9828770974685375
aF2.4167562254411346
aF-1.590735775725207
aF-0.5987392892502124
aF1.8898564380193559
aF-0.5952932691428887
aF1.5564709271902704
aF-1.3667366862395283
aF-2.6043454372797132
aF2.3232765189810385
aF-1.81112503145058
aF0.13549058601135222
aF2.7331778633816413
aF2.0550005958510633
aF-1.5187479139783955
aF-1.038034925777567
aF-1.7726764540293773
aF-2.7472570984362275
aF2.602421936633858
aF-2.385454717150541
aF-0.4532958581578823
aF1.8718094155478342
aF1.2275518868912787
aF-0.7351648336661949
aF-1.5514512050002403
aF1.7865529011814667
aF1.0284778526162102
aF-1.007223368960916
aF1.8079540524381743
aF-2.9179517399135846
aF1.741886801307821
aF-0.28613190040253533
aF-1.516330442005502
aF-0.9742199825903919
aF2.251670675664199
aF-2.0854046606386767
aF2.7646652212131198
aF-2.3651591394314844
aF2.939804412221233
aF1.164337710731857
aF0.3098512858927709
aF0.8702557504618911
aF-0.9563684546964009
aF-2.0611348524511333
aF2.8322365065099655
aF0.28267159256391317
aF-1.7582239498901373
aF0.9455885273922786
aF-0.6414384071910981
aF-2.200981494525041
aF2.4353591495896163
aF-1.4952766771127277
aF2.5628309101799944
aF-1.6834638532930308
aF2.1738909163522724
aF-0.6663039218859352
aF-1.3342023484205623
aF0.02039529825703479
aF-0.7697839790467302
aF2.6301829728614887
aF0.7097654012369352
aF2.578888870243337
aF0.7591383735215307
aF-0.9509095711790341
aF2.8064803019052356
aF-1.465626223804962
aF1.8178310040150523
aF1.1273695754631703
aF2.081713930583687
aF-0.3736272178317055
aF-0.4495508718067276
aF2.876431736988968
aF-2.0322575121863276
aF2.486103385403693
aF-1.679246725671918
aF-0.9538024742688425
aF2.5558362116780566
aF1.5509813694731367
aF2.2101056807293125
aF2.542416947765374
aF0.46434214309819
aF1.0597100518427869
aF-1.048454689922789
aF1.6890992008738355
aF-2.006404274969412
aF-0.5993036766391491
aF0.8634726278333629
aF-1.7615050976472528
aF2.7119929576667268
aF0.8471489399186467
aF0.21092815354772654
aF2.144629840697492
aF2.466924236403246
aF0.7087296045718752
aF-1.2647372072744647
aF0.4319862896692004
aF-1.6274646257833187
aF0.7126169400161597
aF1.8182538150368197
aF2.080660047423903
aF-0.5275759576595043
aF0.30035500001869586
aF-1.3185678734835056
aF2.308970879860717
aF1.5684922023515027
aF1.4389132953637764
aF-2.528374782877397
aF1.4206236769141087
aF0.326828720102291
aF0.24248559043855522
aF2.051587123598546
aF-1.793567965190765
aF-2.3447758902319986
aF-0.9076431494381376
aF-1.579494257260348
aF1.7216363445424907
aF1.00579134123981
aF-1.7142821699629103
aF-1.6351785883577452
aF1.4765410757853186
aF2.588732031342939
aF-2.47238421461385
aF-0.6237869845204287
aF1.3231031039755567
aF1.820995147258154
aF2.823700912595376
aF1.579485443894841
aF-2.5843913771637625
aF0.4871123194528266
aF-1.0135252090228022
aF-1.8223332810407271
aF-1.6994034756705088
aF2.989136058349837
aF0.9342761873960814
aF-1.1296870718643128
aF2.8371714150118645
aF-2.6725059371707482
aF-0.18796513187823205
aF2.384338940918779
aF-1.625496864725299
aF-1.901180819756166
aF-2.323365394054075
aF-1.2137805081177153
aF2.779547562853419
aF-1.6238107969380027
aF-0.8905108033580014
aF2.6889734128677922
aF-1.0808298554345361
aF2.9114236083090796
aF0.7382683055894712
aF-1.5540195723418353
aF1.6159499654114695
aF2.9534014094783716
aF-2.889921721567725
aF0.30831276241505456
aF0.7301372384450784
aF-0.6018335609181915
aF-1.398617777087673
aF-2.7429873160784113
aF-0.87959721000749
aF1.0957400962268178
aF-2.4121231679072994
aF-1.5149731227511558
aF-2.72831858477367
aF0.15079277121073265
aF1.9634673176822233
aF-2.668104120188918
aF-0.7097247665672599
aF-2.605194700998025
aF-2.192468957529827
aF-0.885791369928469
aF-2.041480643287052
aF-2.1971662797076625
aF0.021521022538603773
aF0.8454348647880541
aF-1.7991066330481698
aF1.4703240437888239
aF1.5102548250493673
aF1.8996461565810137
aF-1.5499990124273928
aF-1.3748965486345277
aF-2.150221142880647
aF-1.6032277625819167
aF-2.9021976193521226
aF2.552848409332725
a.